; Function Attrs: mustprogress nofree norecurse nosync nounwind willreturn memory(read, inaccessiblemem: none) uwtable
define noundef zeroext i1 @_ZNK32pxrInternal_v0_24__pxrReserved__19HdDataSourceLocator9HasPrefixERKS0_(ptr nocapture noundef nonnull readonly align 8 dereferenceable(56) %0, ptr nocapture noundef nonnull readonly align 8 dereferenceable(56) %1) local_unnamed_addr #7 align 2 personality ptr @__gxx_personality_v0 {
  %3 = getelementptr inbounds nuw i8, ptr %1, i64 48
  %4 = load i32, ptr %3, align 8
  %5 = icmp eq i32 %4, 0
  br i1 %5, label %.loopexit, label %6

6:                                                ; preds = %2
  %7 = zext i32 %4 to i64
  %8 = getelementptr inbounds nuw i8, ptr %0, i64 48
  %9 = load i32, ptr %8, align 8
  %10 = icmp ugt i32 %4, %9
  br i1 %10, label %.loopexit, label %.preheader

.preheader:                                       ; preds = %6
  %11 = getelementptr inbounds nuw i8, ptr %0, i64 52
  %12 = load i32, ptr %11, align 4
  %13 = icmp ult i32 %12, 7
  %14 = load ptr, ptr %0, align 8
  %spec.select.i.i.i = select i1 %13, ptr %0, ptr %14
  %15 = getelementptr inbounds nuw i8, ptr %1, i64 52
  %16 = load i32, ptr %15, align 4
  %17 = icmp ult i32 %16, 7
  %18 = load ptr, ptr %1, align 8
  %spec.select.i.i.i11 = select i1 %17, ptr %1, ptr %18
  br label %19

19:                                               ; preds = %19, %.preheader
  %.01012 = phi i64 [ 0, %.preheader ], [ %30, %19 ]
  %20 = getelementptr inbounds %"class.pxrInternal_v0_24__pxrReserved__::TfToken", ptr %spec.select.i.i.i, i64 %.01012
  %21 = getelementptr inbounds %"class.pxrInternal_v0_24__pxrReserved__::TfToken", ptr %spec.select.i.i.i11, i64 %.01012
  %22 = load ptr, ptr %20, align 8
  %23 = ptrtoint ptr %22 to i64
  %24 = and i64 %23, -8
  %25 = inttoptr i64 %24 to ptr
  %26 = load ptr, ptr %21, align 8
  %27 = ptrtoint ptr %26 to i64
  %28 = and i64 %27, -8
  %29 = inttoptr i64 %28 to ptr
  %.not = icmp eq ptr %25, %29
  %30 = add nuw nsw i64 %.01012, 1
  %exitcond.not = icmp ne i64 %30, %7
  %or.cond.not = select i1 %.not, i1 %exitcond.not, i1 false
  br i1 %or.cond.not, label %19, label %.loopexit, !llvm.loop !12

.loopexit:                                        ; preds = %19, %6, %2
  %.0 = phi i1 [ true, %2 ], [ false, %6 ], [ %.not, %19 ]
  ret i1 %.0
}